target datalayout = "e-m:e-p270:32:32-p271:32:32-p272:64:64-i64:64-i128:128-f80:128-n8:16:32:64-S128"
target triple = "x86_64-pc-linux-gnu"

%struct.Vec_Int_t_ = type { i32, i32, ptr }
%struct.Gia_Man_t_ = type { ptr, ptr, i32, i32, i32, i32, ptr, ptr, i32, i32, i32, ptr, ptr, %struct.Vec_Int_t_, %struct.Vec_Int_t_, i32, i32, i32, %struct.Vec_Int_t_, ptr, ptr, ptr, i32, i32, i32, i32, ptr, ptr, ptr, ptr, ptr, i32, i32, ptr, i32, ptr, ptr, ptr, ptr, ptr, ptr, ptr, ptr, ptr, ptr, ptr, ptr, ptr, ptr, ptr, ptr, ptr, ptr, %struct.Vec_Int_t_, %struct.Vec_Int_t_, ptr, ptr, ptr, ptr, ptr, ptr, ptr, ptr, ptr, ptr, ptr, ptr, ptr, ptr, ptr, ptr, ptr, ptr, ptr, ptr, ptr, i32, float, float, ptr, ptr, i32, ptr, ptr, ptr, ptr, ptr, ptr, ptr, ptr, ptr, ptr, ptr, ptr, ptr, ptr, ptr, i64, i64, ptr, ptr, i32, i32, i32, i32, i32, i32, i32, i32, i32, i32, i32, i32, ptr, ptr, ptr, ptr, ptr, ptr, ptr, ptr, i32, i32, i32, ptr, i32, i32, ptr, ptr, ptr, ptr, ptr, ptr, i32, i32, ptr, %struct.Vec_Int_t_, %struct.Vec_Int_t_, %struct.Vec_Int_t_, ptr, ptr, ptr, i32, i32, i32, i32, ptr, ptr, ptr, ptr, ptr }
%struct.Cnf_Dat_t_ = type { ptr, i32, i32, i32, ptr, ptr, ptr, ptr, ptr, ptr }
%struct.Jf_Par_t_ = type { i32, i32, i32, i32, i32, i32, i32, i32, i32, i32, i32, i32, i32, i32, i32, i32, i32, i32, i32, i32, i32, i32, i32, i32, i32, i32, i32, i32, i32, i32, i32, i32, i32, i32, i32, i32, i32, i32, i32, i32, i64, i64, i64, i64, i64, i64, i64, i64, i32, float, float, float, float, ptr, ptr }
%struct.timespec = type { i64, i64 }

@.str.10 = private unnamed_addr constant [5 x i8] c"Time\00", align 1
@.str.33 = private unnamed_addr constant [55 x i8] c"CNF stats: Vars = %6d. Clauses = %7d. Literals = %8d. \00", align 1
@.str.36 = private unnamed_addr constant [5 x i8] c"%s =\00", align 1
@.str.37 = private unnamed_addr constant [11 x i8] c"%9.2f sec\0A\00", align 1

; Function Attrs: nounwind uwtable
define void @Jf_ManSetDefaultPars(ptr noundef %0) #0 {
  %2 = alloca ptr, align 8
  store ptr %0, ptr %2, align 8, !tbaa !92
  %3 = load ptr, ptr %2, align 8, !tbaa !92
  call void @llvm.memset.p0.i64(ptr align 8 %3, i8 0, i64 264, i1 false)
  %4 = load ptr, ptr %2, align 8, !tbaa !92
  %5 = getelementptr inbounds nuw %struct.Jf_Par_t_, ptr %4, i32 0, i32 0
  store i32 6, ptr %5, align 8, !tbaa !95
  %6 = load ptr, ptr %2, align 8, !tbaa !92
  %7 = getelementptr inbounds nuw %struct.Jf_Par_t_, ptr %6, i32 0, i32 1
  store i32 8, ptr %7, align 4, !tbaa !163
  %8 = load ptr, ptr %2, align 8, !tbaa !92
  %9 = getelementptr inbounds nuw %struct.Jf_Par_t_, ptr %8, i32 0, i32 3
  store i32 1, ptr %9, align 4, !tbaa !191
  %10 = load ptr, ptr %2, align 8, !tbaa !92
  %11 = getelementptr inbounds nuw %struct.Jf_Par_t_, ptr %10, i32 0, i32 9
  store i32 5, ptr %11, align 4, !tbaa !86
  %12 = load ptr, ptr %2, align 8, !tbaa !92
  %13 = getelementptr inbounds nuw %struct.Jf_Par_t_, ptr %12, i32 0, i32 13
  store i32 -1, ptr %13, align 4, !tbaa !236
  %14 = load ptr, ptr %2, align 8, !tbaa !92
  %15 = getelementptr inbounds nuw %struct.Jf_Par_t_, ptr %14, i32 0, i32 14
  store i32 1, ptr %15, align 8, !tbaa !169
  %16 = load ptr, ptr %2, align 8, !tbaa !92
  %17 = getelementptr inbounds nuw %struct.Jf_Par_t_, ptr %16, i32 0, i32 18
  store i32 1, ptr %17, align 8, !tbaa !204
  %18 = load ptr, ptr %2, align 8, !tbaa !92
  %19 = getelementptr inbounds nuw %struct.Jf_Par_t_, ptr %18, i32 0, i32 21
  store i32 0, ptr %19, align 4, !tbaa !79
  %20 = load ptr, ptr %2, align 8, !tbaa !92
  %21 = getelementptr inbounds nuw %struct.Jf_Par_t_, ptr %20, i32 0, i32 22
  store i32 0, ptr %21, align 8, !tbaa !93
  %22 = load ptr, ptr %2, align 8, !tbaa !92
  %23 = getelementptr inbounds nuw %struct.Jf_Par_t_, ptr %22, i32 0, i32 23
  store i32 0, ptr %23, align 4, !tbaa !94
  %24 = load ptr, ptr %2, align 8, !tbaa !92
  %25 = getelementptr inbounds nuw %struct.Jf_Par_t_, ptr %24, i32 0, i32 24
  store i32 0, ptr %25, align 8, !tbaa !87
  %26 = load ptr, ptr %2, align 8, !tbaa !92
  %27 = getelementptr inbounds nuw %struct.Jf_Par_t_, ptr %26, i32 0, i32 29
  store i32 0, ptr %27, align 4, !tbaa !237
  %28 = load ptr, ptr %2, align 8, !tbaa !92
  %29 = getelementptr inbounds nuw %struct.Jf_Par_t_, ptr %28, i32 0, i32 34
  store i32 0, ptr %29, align 8, !tbaa !118
  %30 = load ptr, ptr %2, align 8, !tbaa !92
  %31 = getelementptr inbounds nuw %struct.Jf_Par_t_, ptr %30, i32 0, i32 35
  store i32 0, ptr %31, align 4, !tbaa !119
  %32 = load ptr, ptr %2, align 8, !tbaa !92
  %33 = getelementptr inbounds nuw %struct.Jf_Par_t_, ptr %32, i32 0, i32 36
  store i32 8, ptr %33, align 8, !tbaa !238
  %34 = load ptr, ptr %2, align 8, !tbaa !92
  %35 = getelementptr inbounds nuw %struct.Jf_Par_t_, ptr %34, i32 0, i32 37
  store i32 16, ptr %35, align 4, !tbaa !239
  ret void
}

; Function Attrs: inlinehint nounwind uwtable
define internal void @Abc_PrintTime(i32 noundef %0, ptr noundef %1, i64 noundef %2) #1 {
  %4 = alloca i32, align 4
  %5 = alloca ptr, align 8
  %6 = alloca i64, align 8
  store i32 %0, ptr %4, align 4, !tbaa !7
  store ptr %1, ptr %5, align 8, !tbaa !130
  store i64 %2, ptr %6, align 8, !tbaa !3
  %7 = load ptr, ptr %5, align 8, !tbaa !130
  call void (i32, ptr, ...) @Abc_Print(i32 noundef 1, ptr noundef @.str.36, ptr noundef %7)
  %8 = load i64, ptr %6, align 8, !tbaa !3
  %9 = sitofp i64 %8 to double
  %10 = fmul double 1.000000e+00, %9
  %11 = fdiv double %10, 1.000000e+06
  call void (i32, ptr, ...) @Abc_Print(i32 noundef 1, ptr noundef @.str.37, double noundef %11)
  ret void
}

; Function Attrs: nounwind uwtable
define ptr @Jf_ManDeriveCnfMiter(ptr noundef %0, i32 noundef %1) #0 {
  %3 = alloca ptr, align 8
  %4 = alloca i32, align 4
  %5 = alloca %struct.Jf_Par_t_, align 8
  %6 = alloca ptr, align 8
  store ptr %0, ptr %3, align 8, !tbaa !21
  store i32 %1, ptr %4, align 4, !tbaa !7
  call void @llvm.lifetime.start.p0(i64 264, ptr %5) #14
  call void @llvm.lifetime.start.p0(i64 8, ptr %6) #14
  store ptr %5, ptr %6, align 8, !tbaa !92
  %7 = load ptr, ptr %6, align 8, !tbaa !92
  call void @Jf_ManSetDefaultPars(ptr noundef %7)
  %8 = load ptr, ptr %6, align 8, !tbaa !92
  %9 = getelementptr inbounds nuw %struct.Jf_Par_t_, ptr %8, i32 0, i32 24
  store i32 1, ptr %9, align 8, !tbaa !87
  %10 = load ptr, ptr %6, align 8, !tbaa !92
  %11 = getelementptr inbounds nuw %struct.Jf_Par_t_, ptr %10, i32 0, i32 26
  store i32 0, ptr %11, align 8, !tbaa !222
  %12 = load ptr, ptr %6, align 8, !tbaa !92
  %13 = getelementptr inbounds nuw %struct.Jf_Par_t_, ptr %12, i32 0, i32 27
  store i32 1, ptr %13, align 4, !tbaa !224
  %14 = load i32, ptr %4, align 4, !tbaa !7
  %15 = load ptr, ptr %6, align 8, !tbaa !92
  %16 = getelementptr inbounds nuw %struct.Jf_Par_t_, ptr %15, i32 0, i32 34
  store i32 %14, ptr %16, align 8, !tbaa !118
  %17 = load ptr, ptr %3, align 8, !tbaa !21
  %18 = load ptr, ptr %6, align 8, !tbaa !92
  %19 = call ptr @Jf_ManPerformMapping(ptr noundef %17, ptr noundef %18)
  call void @llvm.lifetime.end.p0(i64 8, ptr %6) #14
  call void @llvm.lifetime.end.p0(i64 264, ptr %5) #14
  ret ptr %19
}

; Function Attrs: inlinehint nounwind uwtable
define internal i64 @Abc_Clock() #1 {
  %1 = alloca i64, align 8
  %2 = alloca %struct.timespec, align 8
  %3 = alloca i32, align 4
  %4 = alloca i64, align 8
  call void @llvm.lifetime.start.p0(i64 16, ptr %2) #14
  %5 = call i32 @clock_gettime(i32 noundef 1, ptr noundef %2) #14
  %6 = icmp slt i32 %5, 0
  br i1 %6, label %7, label %8

7:                                                ; preds = %0
  store i64 -1, ptr %1, align 8
  store i32 1, ptr %3, align 4
  br label %19

8:                                                ; preds = %0
  call void @llvm.lifetime.start.p0(i64 8, ptr %4) #14
  %9 = getelementptr inbounds nuw %struct.timespec, ptr %2, i32 0, i32 0
  %10 = load i64, ptr %9, align 8, !tbaa !245
  %11 = mul nsw i64 %10, 1000000
  store i64 %11, ptr %4, align 8, !tbaa !3
  %12 = getelementptr inbounds nuw %struct.timespec, ptr %2, i32 0, i32 1
  %13 = load i64, ptr %12, align 8, !tbaa !247
  %14 = mul nsw i64 %13, 1000000
  %15 = sdiv i64 %14, 1000000000
  %16 = load i64, ptr %4, align 8, !tbaa !3
  %17 = add nsw i64 %16, %15
  store i64 %17, ptr %4, align 8, !tbaa !3
  %18 = load i64, ptr %4, align 8, !tbaa !3
  store i64 %18, ptr %1, align 8
  store i32 1, ptr %3, align 4
  call void @llvm.lifetime.end.p0(i64 8, ptr %4) #14
  br label %19

19:                                               ; preds = %8, %7
  call void @llvm.lifetime.end.p0(i64 16, ptr %2) #14
  %20 = load i64, ptr %1, align 8
  ret i64 %20
}

; Function Attrs: nounwind uwtable
define void @Jf_ManDumpCnf(ptr noundef %0, ptr noundef %1, i32 noundef %2) #0 {
  %4 = alloca ptr, align 8
  %5 = alloca ptr, align 8
  %6 = alloca i32, align 4
  %7 = alloca i64, align 8
  %8 = alloca ptr, align 8
  %9 = alloca ptr, align 8
  store ptr %0, ptr %4, align 8, !tbaa !21
  store ptr %1, ptr %5, align 8, !tbaa !130
  store i32 %2, ptr %6, align 4, !tbaa !7
  call void @llvm.lifetime.start.p0(i64 8, ptr %7) #14
  %10 = call i64 @Abc_Clock()
  store i64 %10, ptr %7, align 8, !tbaa !3
  call void @llvm.lifetime.start.p0(i64 8, ptr %8) #14
  call void @llvm.lifetime.start.p0(i64 8, ptr %9) #14
  %11 = load ptr, ptr %4, align 8, !tbaa !21
  %12 = load i32, ptr %6, align 4, !tbaa !7
  %13 = call ptr @Jf_ManDeriveCnfMiter(ptr noundef %11, i32 noundef %12)
  store ptr %13, ptr %8, align 8, !tbaa !21
  %14 = load ptr, ptr %8, align 8, !tbaa !21
  %15 = getelementptr inbounds nuw %struct.Gia_Man_t_, ptr %14, i32 0, i32 99
  %16 = load ptr, ptr %15, align 8, !tbaa !223
  store ptr %16, ptr %9, align 8, !tbaa !45
  %17 = load ptr, ptr %8, align 8, !tbaa !21
  %18 = getelementptr inbounds nuw %struct.Gia_Man_t_, ptr %17, i32 0, i32 99
  store ptr null, ptr %18, align 8, !tbaa !223
  %19 = load ptr, ptr %9, align 8, !tbaa !45
  %20 = load ptr, ptr %5, align 8, !tbaa !130
  call void @Cnf_DataWriteIntoFile(ptr noundef %19, ptr noundef %20, i32 noundef 0, ptr noundef null, ptr noundef null)
  %21 = load ptr, ptr %8, align 8, !tbaa !21
  call void @Gia_ManStop(ptr noundef %21)
  %22 = load ptr, ptr %9, align 8, !tbaa !45
  %23 = getelementptr inbounds nuw %struct.Cnf_Dat_t_, ptr %22, i32 0, i32 1
  %24 = load i32, ptr %23, align 8, !tbaa !51
  %25 = load ptr, ptr %9, align 8, !tbaa !45
  %26 = getelementptr inbounds nuw %struct.Cnf_Dat_t_, ptr %25, i32 0, i32 3
  %27 = load i32, ptr %26, align 8, !tbaa !53
  %28 = load ptr, ptr %9, align 8, !tbaa !45
  %29 = getelementptr inbounds nuw %struct.Cnf_Dat_t_, ptr %28, i32 0, i32 2
  %30 = load i32, ptr %29, align 4, !tbaa !52
  %31 = call i32 (ptr, ...) @printf(ptr noundef @.str.33, i32 noundef %24, i32 noundef %27, i32 noundef %30)
  %32 = call i64 @Abc_Clock()
  %33 = load i64, ptr %7, align 8, !tbaa !3
  %34 = sub nsw i64 %32, %33
  call void @Abc_PrintTime(i32 noundef 1, ptr noundef @.str.10, i64 noundef %34)
  %35 = load ptr, ptr %9, align 8, !tbaa !45
  call void @Cnf_DataFree(ptr noundef %35)
  call void @llvm.lifetime.end.p0(i64 8, ptr %9) #14
  call void @llvm.lifetime.end.p0(i64 8, ptr %8) #14
  call void @llvm.lifetime.end.p0(i64 8, ptr %7) #14
  ret void
}