; Function Attrs: nounwind uwtable
define void @Jf_ManDumpCnf(ptr noundef %0, ptr noundef %1, i32 noundef %2) local_unnamed_addr #0 {
  %4 = alloca %struct.timespec, align 8
  %5 = alloca %struct.Jf_Par_t_, align 8
  %6 = alloca %struct.timespec, align 8
  call void @llvm.lifetime.start.p0(i64 16, ptr nonnull %6) #30
  %7 = call i32 @clock_gettime(i32 noundef 1, ptr noundef nonnull %6) #30
  %8 = icmp slt i32 %7, 0
  br i1 %8, label %Abc_Clock.exit, label %9

9:                                                ; preds = %3
  %10 = load i64, ptr %6, align 8, !tbaa !112
  %.neg13 = mul i64 %10, -1000000
  %11 = getelementptr inbounds nuw i8, ptr %6, i64 8
  %12 = load i64, ptr %11, align 8, !tbaa !114
  %.neg = sdiv i64 %12, -1000
  %.neg14 = add i64 %.neg, %.neg13
  br label %Abc_Clock.exit

Abc_Clock.exit:                                   ; preds = %3, %9
  %.0.i.neg = phi i64 [ %.neg14, %9 ], [ 1, %3 ]
  call void @llvm.lifetime.end.p0(i64 16, ptr nonnull %6) #30
  call void @llvm.lifetime.start.p0(i64 264, ptr nonnull %5) #30
  %13 = getelementptr inbounds nuw i8, ptr %5, i64 8
  call void @llvm.memset.p0.i64(ptr noundef nonnull align 8 dereferenceable(264) %13, i8 0, i64 256, i1 false)
  store i32 6, ptr %5, align 8, !tbaa !93
  %14 = getelementptr inbounds nuw i8, ptr %5, i64 4
  store i32 8, ptr %14, align 4, !tbaa !159
  %15 = getelementptr inbounds nuw i8, ptr %5, i64 12
  store i32 1, ptr %15, align 4, !tbaa !189
  %16 = getelementptr inbounds nuw i8, ptr %5, i64 36
  store i32 5, ptr %16, align 4, !tbaa !79
  %17 = getelementptr inbounds nuw i8, ptr %5, i64 52
  store i32 -1, ptr %17, align 4, !tbaa !230
  %18 = getelementptr inbounds nuw i8, ptr %5, i64 56
  store i32 1, ptr %18, align 8, !tbaa !170
  %19 = getelementptr inbounds nuw i8, ptr %5, i64 72
  store i32 1, ptr %19, align 8, !tbaa !200
  %20 = getelementptr inbounds nuw i8, ptr %5, i64 84
  %21 = getelementptr inbounds nuw i8, ptr %5, i64 136
  %22 = getelementptr inbounds nuw i8, ptr %5, i64 144
  call void @llvm.memset.p0.i64(ptr noundef nonnull align 4 dereferenceable(16) %20, i8 0, i64 12, i1 false)
  store i32 8, ptr %22, align 8, !tbaa !231
  %23 = getelementptr inbounds nuw i8, ptr %5, i64 148
  store i32 16, ptr %23, align 4, !tbaa !232
  %24 = getelementptr inbounds nuw i8, ptr %5, i64 96
  store i32 1, ptr %24, align 8, !tbaa !85
  %25 = getelementptr inbounds nuw i8, ptr %5, i64 108
  store i32 1, ptr %25, align 4, !tbaa !219
  store i32 %2, ptr %21, align 8, !tbaa !116
  %26 = call ptr @Jf_ManPerformMapping(ptr noundef %0, ptr noundef nonnull %5)
  call void @llvm.lifetime.end.p0(i64 264, ptr nonnull %5) #30
  %27 = getelementptr inbounds nuw i8, ptr %26, i64 768
  %28 = load ptr, ptr %27, align 8, !tbaa !220
  store ptr null, ptr %27, align 8, !tbaa !220
  call void @Cnf_DataWriteIntoFile(ptr noundef %28, ptr noundef %1, i32 noundef 0, ptr noundef null, ptr noundef null) #30
  call void @Gia_ManStop(ptr noundef %26) #30
  %29 = getelementptr inbounds nuw i8, ptr %28, i64 8
  %30 = load i32, ptr %29, align 8, !tbaa !48
  %31 = getelementptr inbounds nuw i8, ptr %28, i64 16
  %32 = load i32, ptr %31, align 8, !tbaa !50
  %33 = getelementptr inbounds nuw i8, ptr %28, i64 12
  %34 = load i32, ptr %33, align 4, !tbaa !49
  %35 = call i32 (ptr, ...) @printf(ptr noundef nonnull dereferenceable(1) @.str.33, i32 noundef %30, i32 noundef %32, i32 noundef %34)
  call void @llvm.lifetime.start.p0(i64 16, ptr nonnull %4) #30
  %36 = call i32 @clock_gettime(i32 noundef 1, ptr noundef nonnull %4) #30
  %37 = icmp slt i32 %36, 0
  br i1 %37, label %Abc_Clock.exit12, label %38

38:                                               ; preds = %Abc_Clock.exit
  %39 = load i64, ptr %4, align 8, !tbaa !112
  %40 = mul nsw i64 %39, 1000000
  %41 = getelementptr inbounds nuw i8, ptr %4, i64 8
  %42 = load i64, ptr %41, align 8, !tbaa !114
  %43 = sdiv i64 %42, 1000
  %44 = add nsw i64 %43, %40
  br label %Abc_Clock.exit12

Abc_Clock.exit12:                                 ; preds = %Abc_Clock.exit, %38
  %.0.i11 = phi i64 [ %44, %38 ], [ -1, %Abc_Clock.exit ]
  call void @llvm.lifetime.end.p0(i64 16, ptr nonnull %4) #30
  %45 = add i64 %.0.i11, %.0.i.neg
  call void (i32, ptr, ...) @Abc_Print(i32 poison, ptr noundef nonnull @.str.36, ptr noundef nonnull @.str.10)
  %46 = sitofp i64 %45 to double
  %47 = fdiv double %46, 1.000000e+06
  call void (i32, ptr, ...) @Abc_Print(i32 poison, ptr noundef nonnull @.str.37, double noundef %47)
  call void @Cnf_DataFree(ptr noundef nonnull %28) #30
  ret void
}